; Function Attrs: mustprogress nounwind uwtable
define hidden noundef ptr @_ZNK7SubNode5ValueEP8PhaseGVN(ptr noundef nonnull align 8 dereferenceable(52) %0, ptr nocapture noundef readonly %1) unnamed_addr #0 align 2 {
  %3 = getelementptr inbounds i8, ptr %0, i64 8
  %4 = load ptr, ptr %3, align 8
  %5 = getelementptr inbounds i8, ptr %4, i64 8
  %6 = load ptr, ptr %5, align 8
  %7 = getelementptr inbounds i8, ptr %4, i64 16
  %8 = load ptr, ptr %7, align 8
  %9 = icmp eq ptr %6, %0
  br i1 %9, label %19, label %10

10:                                               ; preds = %2
  %11 = getelementptr inbounds i8, ptr %1, i64 40
  %12 = load ptr, ptr %11, align 8
  %13 = getelementptr inbounds i8, ptr %6, i64 40
  %14 = load i32, ptr %13, align 8
  %15 = getelementptr inbounds i8, ptr %12, i64 16
  %16 = load ptr, ptr %15, align 8
  %17 = zext i32 %14 to i64
  %18 = getelementptr inbounds ptr, ptr %16, i64 %17
  br label %19

19:                                               ; preds = %10, %2
  %.in.i = phi ptr [ %18, %10 ], [ @_ZN4Type3TOPE, %2 ]
  %20 = load ptr, ptr %.in.i, align 8
  %21 = load ptr, ptr @_ZN4Type3TOPE, align 8
  %22 = icmp eq ptr %20, %21
  %23 = icmp eq ptr %8, %0
  %or.cond21.i = select i1 %22, i1 true, i1 %23
  br i1 %or.cond21.i, label %_ZNK7SubNode12Value_commonEP11PhaseValues.exit, label %24

24:                                               ; preds = %19
  %25 = getelementptr inbounds i8, ptr %1, i64 40
  %26 = load ptr, ptr %25, align 8
  %27 = getelementptr inbounds i8, ptr %8, i64 40
  %28 = load i32, ptr %27, align 8
  %29 = getelementptr inbounds i8, ptr %26, i64 16
  %30 = load ptr, ptr %29, align 8
  %31 = zext i32 %28 to i64
  %32 = getelementptr inbounds ptr, ptr %30, i64 %31
  %33 = load ptr, ptr %32, align 8
  %34 = icmp eq ptr %33, %21
  br i1 %34, label %_ZNK7SubNode12Value_commonEP11PhaseValues.exit, label %35

35:                                               ; preds = %24
  %36 = tail call noundef ptr @_ZNK4Node6uncastEb(ptr noundef nonnull align 8 dereferenceable(52) %6, i1 noundef zeroext false) #10
  %37 = tail call noundef ptr @_ZNK4Node6uncastEb(ptr noundef nonnull align 8 dereferenceable(52) %8, i1 noundef zeroext false) #10
  %38 = icmp eq ptr %36, %37
  br i1 %38, label %.thread.sink.split.i, label %39

39:                                               ; preds = %35
  %40 = load ptr, ptr @_ZN4Type6BOTTOME, align 8
  %41 = icmp eq ptr %20, %40
  %42 = icmp eq ptr %33, %40
  %or.cond.i = or i1 %41, %42
  br i1 %or.cond.i, label %.thread.sink.split.i, label %_ZNK7SubNode12Value_commonEP11PhaseValues.exit.thread

.thread.sink.split.i:                             ; preds = %39, %35
  %.sink23.i = phi i64 [ 200, %35 ], [ 40, %39 ]
  %43 = load ptr, ptr %0, align 8
  %44 = getelementptr inbounds i8, ptr %43, i64 %.sink23.i
  %45 = load ptr, ptr %44, align 8
  %46 = tail call noundef ptr %45(ptr noundef nonnull align 8 dereferenceable(52) %0) #10
  br label %_ZNK7SubNode12Value_commonEP11PhaseValues.exit

_ZNK7SubNode12Value_commonEP11PhaseValues.exit:   ; preds = %19, %24, %.thread.sink.split.i
  %.0.i = phi ptr [ %21, %19 ], [ %21, %24 ], [ %46, %.thread.sink.split.i ]
  %.not = icmp eq ptr %.0.i, null
  br i1 %.not, label %_ZNK7SubNode12Value_commonEP11PhaseValues.exit.thread, label %70

_ZNK7SubNode12Value_commonEP11PhaseValues.exit.thread: ; preds = %39, %_ZNK7SubNode12Value_commonEP11PhaseValues.exit
  %47 = load ptr, ptr %3, align 8
  %48 = getelementptr inbounds i8, ptr %47, i64 8
  %49 = load ptr, ptr %48, align 8
  %50 = getelementptr inbounds i8, ptr %1, i64 40
  %51 = load ptr, ptr %50, align 8
  %52 = getelementptr inbounds i8, ptr %49, i64 40
  %53 = load i32, ptr %52, align 8
  %54 = getelementptr inbounds i8, ptr %51, i64 16
  %55 = load ptr, ptr %54, align 8
  %56 = zext i32 %53 to i64
  %57 = getelementptr inbounds ptr, ptr %55, i64 %56
  %58 = load ptr, ptr %57, align 8
  %59 = getelementptr inbounds i8, ptr %47, i64 16
  %60 = load ptr, ptr %59, align 8
  %61 = getelementptr inbounds i8, ptr %60, i64 40
  %62 = load i32, ptr %61, align 8
  %63 = zext i32 %62 to i64
  %64 = getelementptr inbounds ptr, ptr %55, i64 %63
  %65 = load ptr, ptr %64, align 8
  %66 = load ptr, ptr %0, align 8
  %67 = getelementptr inbounds i8, ptr %66, i64 192
  %68 = load ptr, ptr %67, align 8
  %69 = tail call noundef ptr %68(ptr noundef nonnull align 8 dereferenceable(52) %0, ptr noundef %58, ptr noundef %65) #10
  br label %70

70:                                               ; preds = %_ZNK7SubNode12Value_commonEP11PhaseValues.exit, %_ZNK7SubNode12Value_commonEP11PhaseValues.exit.thread
  %.0 = phi ptr [ %69, %_ZNK7SubNode12Value_commonEP11PhaseValues.exit.thread ], [ %.0.i, %_ZNK7SubNode12Value_commonEP11PhaseValues.exit ]
  ret ptr %.0
}